target datalayout = "e-m:e-p270:32:32-p271:32:32-p272:64:64-i64:64-i128:128-f80:128-n8:16:32:64-S128"
target triple = "x86_64-pc-linux-gnu"

%struct.Gia_Man_t_ = type { ptr, ptr, i32, i32, i32, i32, ptr, ptr, i32, i32, i32, ptr, ptr, %struct.Vec_Int_t_, %struct.Vec_Int_t_, i32, i32, i32, %struct.Vec_Int_t_, ptr, ptr, ptr, i32, i32, i32, i32, ptr, ptr, ptr, ptr, ptr, i32, i32, ptr, i32, ptr, ptr, ptr, ptr, ptr, ptr, ptr, ptr, ptr, ptr, ptr, ptr, ptr, ptr, ptr, ptr, ptr, ptr, %struct.Vec_Int_t_, %struct.Vec_Int_t_, ptr, ptr, ptr, ptr, ptr, ptr, ptr, ptr, ptr, ptr, ptr, ptr, ptr, ptr, ptr, ptr, ptr, ptr, ptr, ptr, ptr, i32, float, float, ptr, ptr, i32, ptr, ptr, ptr, ptr, ptr, ptr, ptr, ptr, ptr, ptr, ptr, ptr, ptr, ptr, ptr, i64, i64, ptr, ptr, i32, i32, i32, i32, i32, i32, i32, i32, i32, i32, i32, i32, ptr, ptr, ptr, ptr, ptr, ptr, ptr, ptr, i32, i32, i32, ptr, i32, i32, ptr, ptr, ptr, ptr, ptr, ptr, i32, i32, ptr, %struct.Vec_Int_t_, %struct.Vec_Int_t_, %struct.Vec_Int_t_, ptr, ptr, ptr, i32, i32, i32, i32, ptr, ptr, ptr, ptr, ptr }
%struct.Vec_Int_t_ = type { i32, i32, ptr }
%struct.Gia_Obj_t_ = type <{ i64, i32 }>

; Function Attrs: inlinehint nounwind uwtable
define internal i32 @Gia_ObjId(ptr noundef %0, ptr noundef %1) #2 {
  %3 = alloca ptr, align 8
  %4 = alloca ptr, align 8
  store ptr %0, ptr %3, align 8, !tbaa !8
  store ptr %1, ptr %4, align 8, !tbaa !10
  %5 = load ptr, ptr %4, align 8, !tbaa !10
  %6 = load ptr, ptr %3, align 8, !tbaa !8
  %7 = getelementptr inbounds nuw %struct.Gia_Man_t_, ptr %6, i32 0, i32 6
  %8 = load ptr, ptr %7, align 8, !tbaa !87
  %9 = ptrtoint ptr %5 to i64
  %10 = ptrtoint ptr %8 to i64
  %11 = sub i64 %9, %10
  %12 = sdiv exact i64 %11, 12
  %13 = trunc i64 %12 to i32
  ret i32 %13
}

; Function Attrs: inlinehint nounwind uwtable
define internal i32 @Gia_XsimAndCond(i32 noundef %0, i32 noundef %1, i32 noundef %2, i32 noundef %3) #2 {
  %5 = alloca i32, align 4
  %6 = alloca i32, align 4
  %7 = alloca i32, align 4
  %8 = alloca i32, align 4
  %9 = alloca i32, align 4
  store i32 %0, ptr %6, align 4, !tbaa !12
  store i32 %1, ptr %7, align 4, !tbaa !12
  store i32 %2, ptr %8, align 4, !tbaa !12
  store i32 %3, ptr %9, align 4, !tbaa !12
  %10 = load i32, ptr %6, align 4, !tbaa !12
  %11 = load i32, ptr %7, align 4, !tbaa !12
  %12 = add nsw i32 1, %11
  %13 = icmp eq i32 %10, %12
  br i1 %13, label %19, label %14

14:                                               ; preds = %4
  %15 = load i32, ptr %8, align 4, !tbaa !12
  %16 = load i32, ptr %9, align 4, !tbaa !12
  %17 = add nsw i32 1, %16
  %18 = icmp eq i32 %15, %17
  br i1 %18, label %19, label %20

19:                                               ; preds = %14, %4
  store i32 1, ptr %5, align 4
  br label %28

20:                                               ; preds = %14
  %21 = load i32, ptr %6, align 4, !tbaa !12
  %22 = icmp eq i32 %21, 3
  br i1 %22, label %26, label %23

23:                                               ; preds = %20
  %24 = load i32, ptr %8, align 4, !tbaa !12
  %25 = icmp eq i32 %24, 3
  br i1 %25, label %26, label %27

26:                                               ; preds = %23, %20
  store i32 3, ptr %5, align 4
  br label %28

27:                                               ; preds = %23
  store i32 2, ptr %5, align 4
  br label %28

28:                                               ; preds = %27, %26, %19
  %29 = load i32, ptr %5, align 4
  ret i32 %29
}

; Function Attrs: inlinehint nounwind uwtable
define internal i32 @Gia_ObjFaninC1(ptr noundef %0) #2 {
  %2 = alloca ptr, align 8
  store ptr %0, ptr %2, align 8, !tbaa !10
  %3 = load ptr, ptr %2, align 8, !tbaa !10
  %4 = load i64, ptr %3, align 4
  %5 = lshr i64 %4, 61
  %6 = and i64 %5, 1
  %7 = trunc i64 %6 to i32
  ret i32 %7
}

; Function Attrs: inlinehint nounwind uwtable
define internal i32 @Gia_ObjFaninC0(ptr noundef %0) #2 {
  %2 = alloca ptr, align 8
  store ptr %0, ptr %2, align 8, !tbaa !10
  %3 = load ptr, ptr %2, align 8, !tbaa !10
  %4 = load i64, ptr %3, align 4
  %5 = lshr i64 %4, 29
  %6 = and i64 %5, 1
  %7 = trunc i64 %6 to i32
  ret i32 %7
}

; Function Attrs: inlinehint nounwind uwtable
define internal ptr @Gia_ObjFanin1(ptr noundef %0) #2 {
  %2 = alloca ptr, align 8
  store ptr %0, ptr %2, align 8, !tbaa !10
  %3 = load ptr, ptr %2, align 8, !tbaa !10
  %4 = load ptr, ptr %2, align 8, !tbaa !10
  %5 = load i64, ptr %4, align 4
  %6 = lshr i64 %5, 32
  %7 = and i64 %6, 536870911
  %8 = trunc i64 %7 to i32
  %9 = sext i32 %8 to i64
  %10 = sub i64 0, %9
  %11 = getelementptr inbounds %struct.Gia_Obj_t_, ptr %3, i64 %10
  ret ptr %11
}

; Function Attrs: inlinehint nounwind uwtable
define internal ptr @Gia_ObjFanin0(ptr noundef %0) #2 {
  %2 = alloca ptr, align 8
  store ptr %0, ptr %2, align 8, !tbaa !10
  %3 = load ptr, ptr %2, align 8, !tbaa !10
  %4 = load ptr, ptr %2, align 8, !tbaa !10
  %5 = load i64, ptr %4, align 4
  %6 = and i64 %5, 536870911
  %7 = trunc i64 %6 to i32
  %8 = sext i32 %7 to i64
  %9 = sub i64 0, %8
  %10 = getelementptr inbounds %struct.Gia_Obj_t_, ptr %3, i64 %9
  ret ptr %10
}

; Function Attrs: inlinehint nounwind uwtable
define internal i32 @Gia_ObjIsCi(ptr noundef %0) #2 {
  %2 = alloca ptr, align 8
  store ptr %0, ptr %2, align 8, !tbaa !10
  %3 = load ptr, ptr %2, align 8, !tbaa !10
  %4 = load i64, ptr %3, align 4
  %5 = lshr i64 %4, 31
  %6 = and i64 %5, 1
  %7 = trunc i64 %6 to i32
  %8 = icmp ne i32 %7, 0
  br i1 %8, label %9, label %15

9:                                                ; preds = %1
  %10 = load ptr, ptr %2, align 8, !tbaa !10
  %11 = load i64, ptr %10, align 4
  %12 = and i64 %11, 536870911
  %13 = trunc i64 %12 to i32
  %14 = icmp eq i32 %13, 536870911
  br label %15

15:                                               ; preds = %9, %1
  %16 = phi i1 [ false, %1 ], [ %14, %9 ]
  %17 = zext i1 %16 to i32
  ret i32 %17
}

; Function Attrs: inlinehint nounwind uwtable
define internal void @Gia_ObjSetTravIdCurrent(ptr noundef %0, ptr noundef %1) #2 {
  %3 = alloca ptr, align 8
  %4 = alloca ptr, align 8
  store ptr %0, ptr %3, align 8, !tbaa !8
  store ptr %1, ptr %4, align 8, !tbaa !10
  %5 = load ptr, ptr %3, align 8, !tbaa !8
  %6 = getelementptr inbounds nuw %struct.Gia_Man_t_, ptr %5, i32 0, i32 24
  %7 = load i32, ptr %6, align 8, !tbaa !33
  %8 = load ptr, ptr %3, align 8, !tbaa !8
  %9 = getelementptr inbounds nuw %struct.Gia_Man_t_, ptr %8, i32 0, i32 80
  %10 = load ptr, ptr %9, align 8, !tbaa !14
  %11 = load ptr, ptr %3, align 8, !tbaa !8
  %12 = load ptr, ptr %4, align 8, !tbaa !10
  %13 = call i32 @Gia_ObjId(ptr noundef %11, ptr noundef %12)
  %14 = sext i32 %13 to i64
  %15 = getelementptr inbounds i32, ptr %10, i64 %14
  store i32 %7, ptr %15, align 4, !tbaa !12
  ret void
}

; Function Attrs: inlinehint nounwind uwtable
define internal i32 @Gia_ObjIsTravIdCurrent(ptr noundef %0, ptr noundef %1) #2 {
  %3 = alloca ptr, align 8
  %4 = alloca ptr, align 8
  store ptr %0, ptr %3, align 8, !tbaa !8
  store ptr %1, ptr %4, align 8, !tbaa !10
  %5 = load ptr, ptr %3, align 8, !tbaa !8
  %6 = getelementptr inbounds nuw %struct.Gia_Man_t_, ptr %5, i32 0, i32 80
  %7 = load ptr, ptr %6, align 8, !tbaa !14
  %8 = load ptr, ptr %3, align 8, !tbaa !8
  %9 = load ptr, ptr %4, align 8, !tbaa !10
  %10 = call i32 @Gia_ObjId(ptr noundef %8, ptr noundef %9)
  %11 = sext i32 %10 to i64
  %12 = getelementptr inbounds i32, ptr %7, i64 %11
  %13 = load i32, ptr %12, align 4, !tbaa !12
  %14 = load ptr, ptr %3, align 8, !tbaa !8
  %15 = getelementptr inbounds nuw %struct.Gia_Man_t_, ptr %14, i32 0, i32 24
  %16 = load i32, ptr %15, align 8, !tbaa !33
  %17 = icmp eq i32 %13, %16
  %18 = zext i1 %17 to i32
  ret i32 %18
}

; Function Attrs: nounwind uwtable
define i32 @Cec_ManPatComputePattern3_rec(ptr noundef %0, ptr noundef %1) #0 {
  %3 = alloca i32, align 4
  %4 = alloca ptr, align 8
  %5 = alloca ptr, align 8
  %6 = alloca i32, align 4
  %7 = alloca i32, align 4
  %8 = alloca i32, align 4
  %9 = alloca i32, align 4
  store ptr %0, ptr %4, align 8, !tbaa !8
  store ptr %1, ptr %5, align 8, !tbaa !10
  call void @llvm.lifetime.start.p0(i64 4, ptr %6) #11
  call void @llvm.lifetime.start.p0(i64 4, ptr %7) #11
  call void @llvm.lifetime.start.p0(i64 4, ptr %8) #11
  %10 = load ptr, ptr %4, align 8, !tbaa !8
  %11 = load ptr, ptr %5, align 8, !tbaa !10
  %12 = call i32 @Gia_ObjIsTravIdCurrent(ptr noundef %10, ptr noundef %11)
  %13 = icmp ne i32 %12, 0
  br i1 %13, label %14, label %27

14:                                               ; preds = %2
  %15 = load ptr, ptr %5, align 8, !tbaa !10
  %16 = load i64, ptr %15, align 4
  %17 = lshr i64 %16, 62
  %18 = and i64 %17, 1
  %19 = trunc i64 %18 to i32
  %20 = shl i32 %19, 1
  %21 = load ptr, ptr %5, align 8, !tbaa !10
  %22 = load i64, ptr %21, align 4
  %23 = lshr i64 %22, 30
  %24 = and i64 %23, 1
  %25 = trunc i64 %24 to i32
  %26 = or i32 %20, %25
  store i32 %26, ptr %3, align 4
  store i32 1, ptr %9, align 4
  br label %78

27:                                               ; preds = %2
  %28 = load ptr, ptr %4, align 8, !tbaa !8
  %29 = load ptr, ptr %5, align 8, !tbaa !10
  call void @Gia_ObjSetTravIdCurrent(ptr noundef %28, ptr noundef %29)
  %30 = load ptr, ptr %5, align 8, !tbaa !10
  %31 = call i32 @Gia_ObjIsCi(ptr noundef %30)
  %32 = icmp ne i32 %31, 0
  br i1 %32, label %33, label %42

33:                                               ; preds = %27
  %34 = load ptr, ptr %5, align 8, !tbaa !10
  %35 = load i64, ptr %34, align 4
  %36 = and i64 %35, -1073741825
  %37 = or i64 %36, 1073741824
  store i64 %37, ptr %34, align 4
  %38 = load ptr, ptr %5, align 8, !tbaa !10
  %39 = load i64, ptr %38, align 4
  %40 = and i64 %39, -4611686018427387905
  %41 = or i64 %40, 4611686018427387904
  store i64 %41, ptr %38, align 4
  store i32 3, ptr %3, align 4
  store i32 1, ptr %9, align 4
  br label %78

42:                                               ; preds = %27
  %43 = load ptr, ptr %4, align 8, !tbaa !8
  %44 = load ptr, ptr %5, align 8, !tbaa !10
  %45 = call ptr @Gia_ObjFanin0(ptr noundef %44)
  %46 = call i32 @Cec_ManPatComputePattern3_rec(ptr noundef %43, ptr noundef %45)
  store i32 %46, ptr %6, align 4, !tbaa !12
  %47 = load ptr, ptr %4, align 8, !tbaa !8
  %48 = load ptr, ptr %5, align 8, !tbaa !10
  %49 = call ptr @Gia_ObjFanin1(ptr noundef %48)
  %50 = call i32 @Cec_ManPatComputePattern3_rec(ptr noundef %47, ptr noundef %49)
  store i32 %50, ptr %7, align 4, !tbaa !12
  %51 = load i32, ptr %6, align 4, !tbaa !12
  %52 = load ptr, ptr %5, align 8, !tbaa !10
  %53 = call i32 @Gia_ObjFaninC0(ptr noundef %52)
  %54 = load i32, ptr %7, align 4, !tbaa !12
  %55 = load ptr, ptr %5, align 8, !tbaa !10
  %56 = call i32 @Gia_ObjFaninC1(ptr noundef %55)
  %57 = call i32 @Gia_XsimAndCond(i32 noundef %51, i32 noundef %53, i32 noundef %54, i32 noundef %56)
  store i32 %57, ptr %8, align 4, !tbaa !12
  %58 = load i32, ptr %8, align 4, !tbaa !12
  %59 = and i32 %58, 1
  %60 = load ptr, ptr %5, align 8, !tbaa !10
  %61 = zext i32 %59 to i64
  %62 = load i64, ptr %60, align 4
  %63 = and i64 %61, 1
  %64 = shl i64 %63, 30
  %65 = and i64 %62, -1073741825
  %66 = or i64 %65, %64
  store i64 %66, ptr %60, align 4
  %67 = load i32, ptr %8, align 4, !tbaa !12
  %68 = ashr i32 %67, 1
  %69 = and i32 %68, 1
  %70 = load ptr, ptr %5, align 8, !tbaa !10
  %71 = zext i32 %69 to i64
  %72 = load i64, ptr %70, align 4
  %73 = and i64 %71, 1
  %74 = shl i64 %73, 62
  %75 = and i64 %72, -4611686018427387905
  %76 = or i64 %75, %74
  store i64 %76, ptr %70, align 4
  %77 = load i32, ptr %8, align 4, !tbaa !12
  store i32 %77, ptr %3, align 4
  store i32 1, ptr %9, align 4
  br label %78

78:                                               ; preds = %42, %33, %14
  call void @llvm.lifetime.end.p0(i64 4, ptr %8) #11
  call void @llvm.lifetime.end.p0(i64 4, ptr %7) #11
  call void @llvm.lifetime.end.p0(i64 4, ptr %6) #11
  %79 = load i32, ptr %3, align 4
  ret i32 %79
}