; Function Attrs: nofree nosync nounwind memory(readwrite, inaccessiblemem: none) uwtable
define range(i32 0, 4) i32 @Cec_ManPatComputePattern3_rec(ptr noundef %0, ptr noundef %1) local_unnamed_addr #3 {
  %3 = getelementptr inbounds nuw i8, ptr %0, i64 616
  %4 = load ptr, ptr %3, align 8, !tbaa !3
  %5 = getelementptr i8, ptr %0, i64 32
  %.val.i = load ptr, ptr %5, align 8, !tbaa !28
  %6 = ptrtoint ptr %1 to i64
  %7 = ptrtoint ptr %.val.i to i64
  %8 = sub i64 %6, %7
  %9 = sdiv exact i64 %8, 12
  %sext.i = shl i64 %9, 32
  %10 = ashr exact i64 %sext.i, 30
  %11 = getelementptr inbounds i8, ptr %4, i64 %10
  %12 = load i32, ptr %11, align 4, !tbaa !29
  %13 = getelementptr inbounds nuw i8, ptr %0, i64 176
  %14 = load i32, ptr %13, align 8, !tbaa !30
  %.not = icmp eq i32 %12, %14
  br i1 %.not, label %15, label %22

15:                                               ; preds = %2
  %16 = load i64, ptr %1, align 4
  %sh.diff = lshr i64 %16, 61
  %tr.sh.diff = trunc nuw nsw i64 %sh.diff to i32
  %17 = and i32 %tr.sh.diff, 2
  %18 = trunc i64 %16 to i32
  %19 = lshr i32 %18, 30
  %20 = and i32 %19, 1
  %21 = or disjoint i32 %17, %20
  br label %common.ret27

22:                                               ; preds = %2
  store i32 %14, ptr %11, align 4, !tbaa !29
  %.val = load i64, ptr %1, align 4
  %23 = and i64 %.val, 2684354559
  %narrow.i.not = icmp eq i64 %23, 2684354559
  br i1 %narrow.i.not, label %24, label %26

24:                                               ; preds = %22
  %25 = or i64 %.val, 4611686019501129728
  store i64 %25, ptr %1, align 4
  br label %common.ret27

common.ret27:                                     ; preds = %24, %15, %26
  %common.ret27.op = phi i32 [ %.0.i, %26 ], [ %21, %15 ], [ 3, %24 ]
  ret i32 %common.ret27.op

26:                                               ; preds = %22
  %27 = and i64 %.val, 536870911
  %28 = sub nsw i64 0, %27
  %29 = getelementptr inbounds %struct.Gia_Obj_t_, ptr %1, i64 %28
  %30 = tail call i32 @Cec_ManPatComputePattern3_rec(ptr noundef nonnull %0, ptr noundef nonnull %29)
  %31 = load i64, ptr %1, align 4
  %32 = lshr i64 %31, 32
  %33 = and i64 %32, 536870911
  %34 = sub nsw i64 0, %33
  %35 = getelementptr inbounds %struct.Gia_Obj_t_, ptr %1, i64 %34
  %36 = tail call i32 @Cec_ManPatComputePattern3_rec(ptr noundef nonnull %0, ptr noundef nonnull %35)
  %.val23 = load i64, ptr %1, align 4
  %37 = trunc i64 %.val23 to i32
  %38 = lshr i32 %37, 29
  %39 = and i32 %38, 1
  %40 = lshr i64 %.val23, 61
  %41 = trunc nuw nsw i64 %40 to i32
  %42 = and i32 %41, 1
  %43 = add nuw nsw i32 %39, 1
  %44 = icmp eq i32 %30, %43
  %45 = add nuw nsw i32 %42, 1
  %46 = icmp eq i32 %36, %45
  %or.cond11.i = select i1 %44, i1 true, i1 %46
  %47 = icmp eq i32 %30, 3
  %48 = icmp eq i32 %36, 3
  %or.cond.i = or i1 %47, %48
  %..i = select i1 %or.cond.i, i32 3, i32 2
  %.0.i = select i1 %or.cond11.i, i32 1, i32 %..i
  %49 = shl nuw i32 %.0.i, 30
  %50 = and i32 %49, 1073741824
  %51 = zext nneg i32 %50 to i64
  %52 = and i64 %.val23, -4611686019501129729
  %53 = or disjoint i64 %52, %51
  %54 = lshr i32 %.0.i, 1
  %55 = zext nneg i32 %54 to i64
  %56 = shl nuw nsw i64 %55, 62
  %57 = or disjoint i64 %53, %56
  store i64 %57, ptr %1, align 4
  br label %common.ret27
}